target datalayout = "e-m:e-p270:32:32-p271:32:32-p272:64:64-i64:64-i128:128-f80:128-n8:16:32:64-S128"
target triple = "x86_64-pc-linux-gnu"

%struct.cbuf = type { %union.pthread_mutex_t, i32, i32, i32, i32, i32, i32, i32, i32, i32, i32, ptr }
%union.pthread_mutex_t = type { %struct.__pthread_mutex_s }
%struct.__pthread_mutex_s = type { i32, i32, i32, i32, i32, i16, i16, %struct.__pthread_internal_list }
%struct.__pthread_internal_list = type { ptr, ptr }

@.str.2 = private unnamed_addr constant [29 x i8] c"%s: pthread_mutex_lock(): %m\00", align 1
@.str.3 = private unnamed_addr constant [31 x i8] c"%s: pthread_mutex_unlock(): %m\00", align 1
@__func__.cbuf_lines_reused = private unnamed_addr constant [18 x i8] c"cbuf_lines_reused\00", align 1

; Function Attrs: nounwind uwtable
define dso_local i32 @cbuf_lines_reused(ptr noundef %0) #0 {
  %2 = alloca ptr, align 8
  %3 = alloca i32, align 4
  %4 = alloca i32, align 4
  %5 = alloca i32, align 4
  store ptr %0, ptr %2, align 8
  call void @llvm.lifetime.start.p0(i64 4, ptr %3) #8
  store i32 -1, ptr %3, align 4
  br label %6

6:                                                ; preds = %1
  call void @llvm.lifetime.start.p0(i64 4, ptr %4) #8
  %7 = load ptr, ptr %2, align 8
  %8 = getelementptr inbounds nuw %struct.cbuf, ptr %7, i32 0, i32 0
  %9 = call i32 @pthread_mutex_lock(ptr noundef %8) #8
  store i32 %9, ptr %4, align 4
  %10 = load i32, ptr %4, align 4
  %11 = icmp ne i32 %10, 0
  br i1 %11, label %12, label %15

12:                                               ; preds = %6
  %13 = load i32, ptr %4, align 4
  %14 = call ptr @__errno_location() #9
  store i32 %13, ptr %14, align 4
  call void (ptr, ...) @fatal_abort(ptr noundef @.str.2, ptr noundef @__func__.cbuf_lines_reused) #10
  unreachable

15:                                               ; preds = %6
  call void @llvm.lifetime.end.p0(i64 4, ptr %4) #8
  br label %16

16:                                               ; preds = %15
  br label %17

17:                                               ; preds = %16
  %18 = load ptr, ptr %2, align 8
  %19 = load ptr, ptr %2, align 8
  %20 = getelementptr inbounds nuw %struct.cbuf, ptr %19, i32 0, i32 4
  %21 = load i32, ptr %20, align 4
  %22 = call i32 @cbuf_find_replay_line(ptr noundef %18, i32 noundef %21, ptr noundef %3, ptr noundef null)
  br label %23

23:                                               ; preds = %17
  call void @llvm.lifetime.start.p0(i64 4, ptr %5) #8
  %24 = load ptr, ptr %2, align 8
  %25 = getelementptr inbounds nuw %struct.cbuf, ptr %24, i32 0, i32 0
  %26 = call i32 @pthread_mutex_unlock(ptr noundef %25) #8
  store i32 %26, ptr %5, align 4
  %27 = load i32, ptr %5, align 4
  %28 = icmp ne i32 %27, 0
  br i1 %28, label %29, label %32

29:                                               ; preds = %23
  %30 = load i32, ptr %5, align 4
  %31 = call ptr @__errno_location() #9
  store i32 %30, ptr %31, align 4
  call void (ptr, ...) @fatal_abort(ptr noundef @.str.3, ptr noundef @__func__.cbuf_lines_reused) #10
  unreachable

32:                                               ; preds = %23
  call void @llvm.lifetime.end.p0(i64 4, ptr %5) #8
  br label %33

33:                                               ; preds = %32
  br label %34

34:                                               ; preds = %33
  %35 = load i32, ptr %3, align 4
  call void @llvm.lifetime.end.p0(i64 4, ptr %3) #8
  ret i32 %35
}