; Function Attrs: nounwind uwtable
define dso_local i32 @cbuf_lines_reused(ptr noundef %0) local_unnamed_addr #0 {
  %2 = alloca i32, align 4
  call void @llvm.lifetime.start.p0(i64 4, ptr nonnull %2) #15
  store i32 -1, ptr %2, align 4
  %3 = tail call i32 @pthread_mutex_lock(ptr noundef %0) #15
  %.not = icmp eq i32 %3, 0
  br i1 %.not, label %6, label %4

4:                                                ; preds = %1
  %5 = tail call ptr @__errno_location() #14
  store i32 %3, ptr %5, align 4
  tail call void (ptr, ...) @fatal_abort(ptr noundef nonnull @.str.2, ptr noundef nonnull @__func__.cbuf_lines_reused) #16
  unreachable

6:                                                ; preds = %1
  %7 = getelementptr inbounds nuw i8, ptr %0, i64 52
  %8 = load i32, ptr %7, align 4
  %9 = call fastcc i32 @cbuf_find_replay_line(ptr noundef %0, i32 noundef %8, ptr noundef %2, ptr noundef null)
  %10 = tail call i32 @pthread_mutex_unlock(ptr noundef %0) #15
  %.not8 = icmp eq i32 %10, 0
  br i1 %.not8, label %13, label %11

11:                                               ; preds = %6
  %12 = tail call ptr @__errno_location() #14
  store i32 %10, ptr %12, align 4
  tail call void (ptr, ...) @fatal_abort(ptr noundef nonnull @.str.3, ptr noundef nonnull @__func__.cbuf_lines_reused) #16
  unreachable

13:                                               ; preds = %6
  %14 = load i32, ptr %2, align 4
  call void @llvm.lifetime.end.p0(i64 4, ptr nonnull %2) #15
  ret i32 %14
}